target datalayout = "e-m:e-p270:32:32-p271:32:32-p272:64:64-i64:64-i128:128-f80:128-n8:16:32:64-S128"
target triple = "x86_64-pc-linux-gnu"

%"union.pxrInternal_v0_24__pxrReserved__::pxr_half::half::uif" = type { i32 }

; Function Attrs: mustprogress uwtable
define void @_ZN32pxrInternal_v0_24__pxrReserved__8pxr_half9printBitsERSof(ptr noundef nonnull align 8 dereferenceable(8) %0, float noundef %1) #1 {
  %3 = alloca ptr, align 8
  %4 = alloca float, align 4
  %5 = alloca %"union.pxrInternal_v0_24__pxrReserved__::pxr_half::half::uif", align 4
  %6 = alloca i32, align 4
  store ptr %0, ptr %3, align 8
  store float %1, ptr %4, align 4
  %7 = load float, ptr %4, align 4
  store float %7, ptr %5, align 4
  store i32 31, ptr %6, align 4
  br label %8

8:                                                ; preds = %29, %2
  %9 = load i32, ptr %6, align 4
  %10 = icmp sge i32 %9, 0
  br i1 %10, label %11, label %32

11:                                               ; preds = %8
  %12 = load ptr, ptr %3, align 8
  %13 = load i32, ptr %5, align 4
  %14 = load i32, ptr %6, align 4
  %15 = lshr i32 %13, %14
  %16 = and i32 %15, 1
  %17 = icmp ne i32 %16, 0
  %18 = select i1 %17, i8 49, i8 48
  %19 = call noundef nonnull align 8 dereferenceable(8) ptr @_ZStlsISt11char_traitsIcEERSt13basic_ostreamIcT_ES5_c(ptr noundef nonnull align 8 dereferenceable(8) %12, i8 noundef signext %18)
  %20 = load i32, ptr %6, align 4
  %21 = icmp eq i32 %20, 31
  br i1 %21, label %25, label %22

22:                                               ; preds = %11
  %23 = load i32, ptr %6, align 4
  %24 = icmp eq i32 %23, 23
  br i1 %24, label %25, label %28

25:                                               ; preds = %22, %11
  %26 = load ptr, ptr %3, align 8
  %27 = call noundef nonnull align 8 dereferenceable(8) ptr @_ZStlsISt11char_traitsIcEERSt13basic_ostreamIcT_ES5_c(ptr noundef nonnull align 8 dereferenceable(8) %26, i8 noundef signext 32)
  br label %28

28:                                               ; preds = %25, %22
  br label %29

29:                                               ; preds = %28
  %30 = load i32, ptr %6, align 4
  %31 = add nsw i32 %30, -1
  store i32 %31, ptr %6, align 4
  br label %8, !llvm.loop !7

32:                                               ; preds = %8
  ret void
}