; Function Attrs: mustprogress uwtable
define void @_ZN32pxrInternal_v0_24__pxrReserved__8pxr_half9printBitsERSof(ptr noundef nonnull align 8 dereferenceable(8) %0, float noundef %1) local_unnamed_addr #1 {
  %3 = bitcast float %1 to i32
  br label %4

4:                                                ; preds = %2, %12
  %.08 = phi i32 [ 31, %2 ], [ %13, %12 ]
  %5 = shl nuw i32 1, %.08
  %6 = and i32 %5, %3
  %.not = icmp eq i32 %6, 0
  %7 = select i1 %.not, i8 48, i8 49
  %8 = tail call noundef nonnull align 8 dereferenceable(8) ptr @_ZStlsISt11char_traitsIcEERSt13basic_ostreamIcT_ES5_c(ptr noundef nonnull align 8 dereferenceable(8) %0, i8 noundef signext %7)
  %9 = and i32 %.08, 2147483639
  %or.cond = icmp eq i32 %9, 23
  br i1 %or.cond, label %10, label %12

10:                                               ; preds = %4
  %11 = tail call noundef nonnull align 8 dereferenceable(8) ptr @_ZStlsISt11char_traitsIcEERSt13basic_ostreamIcT_ES5_c(ptr noundef nonnull align 8 dereferenceable(8) %0, i8 noundef signext 32)
  br label %12

12:                                               ; preds = %10, %4
  %13 = add nsw i32 %.08, -1
  %.not9 = icmp eq i32 %.08, 0
  br i1 %.not9, label %14, label %4, !llvm.loop !7

14:                                               ; preds = %12
  ret void
}